target datalayout = "e-m:e-p270:32:32-p271:32:32-p272:64:64-i64:64-i128:128-f80:128-n8:16:32:64-S128"
target triple = "x86_64-pc-linux-gnu"

%"class.std::unique_lock" = type <{ ptr, i8, [7 x i8] }>
%"class.std::mutex" = type { %"class.std::__mutex_base" }
%"class.std::__mutex_base" = type { %union.pthread_mutex_t }
%union.pthread_mutex_t = type { %struct.__pthread_mutex_s }
%struct.__pthread_mutex_s = type { i32, i32, i32, i32, i32, i16, i16, %struct.__pthread_internal_list }
%struct.__pthread_internal_list = type { ptr, ptr }
%"class.std::condition_variable" = type { %"class.std::__condvar" }
%"class.std::__condvar" = type { %union.pthread_cond_t }
%union.pthread_cond_t = type { %struct.__pthread_cond_s }
%struct.__pthread_cond_s = type { %union.__atomic_wide_counter, %union.__atomic_wide_counter, [2 x i32], [2 x i32], i32, i32, [2 x i32] }
%union.__atomic_wide_counter = type { i64 }
%"class.pbrt::ThreadPool" = type { %"class.std::vector", %"class.std::mutex", i8, i8, ptr, %"class.std::condition_variable" }
%"class.std::vector" = type { %"struct.std::_Vector_base" }
%"struct.std::_Vector_base" = type { %"struct.std::_Vector_base<std::thread, std::allocator<std::thread>>::_Vector_impl" }
%"struct.std::_Vector_base<std::thread, std::allocator<std::thread>>::_Vector_impl" = type { %"struct.std::_Vector_base<std::thread, std::allocator<std::thread>>::_Vector_impl_data" }
%"struct.std::_Vector_base<std::thread, std::allocator<std::thread>>::_Vector_impl_data" = type { ptr, ptr, ptr }
%"class.pbrt::ParallelJob" = type <{ ptr, i32, [4 x i8], ptr, ptr, i8, [7 x i8] }>
%"class.std::_Function_base" = type { %"union.std::_Any_data", ptr }
%"union.std::_Any_data" = type { %"union.std::_Nocopy_types" }
%"union.std::_Nocopy_types" = type { { i64, i64 } }
%"class.std::function.8" = type { %"class.std::_Function_base", ptr }
%"class.pbrt::ParallelForLoop1D" = type <{ %"class.pbrt::ParallelJob.base", [7 x i8], %"class.std::function.8", i64, i64, i32, [4 x i8] }>
%"class.pbrt::ParallelJob.base" = type <{ ptr, i32, [4 x i8], ptr, ptr, i8 }>

@_ZN4pbrt11ParallelJob10threadPoolE = dso_local global ptr null, align 8

; Function Attrs: inlinehint mustprogress nounwind uwtable
define internal noundef i32 @_ZL18__gthread_active_pv() #10 {
  ret i32 1
}

; Function Attrs: inlinehint mustprogress nounwind uwtable
define internal noundef i32 @_ZL22__gthread_mutex_unlockP15pthread_mutex_t(ptr noundef %0) #10 {
  %2 = alloca i32, align 4
  %3 = alloca ptr, align 8
  store ptr %0, ptr %3, align 8, !tbaa !70
  %4 = call noundef i32 @_ZL18__gthread_active_pv()
  %5 = icmp ne i32 %4, 0
  br i1 %5, label %6, label %9

6:                                                ; preds = %1
  %7 = load ptr, ptr %3, align 8, !tbaa !70
  %8 = call i32 @pthread_mutex_unlock(ptr noundef %7) #18
  store i32 %8, ptr %2, align 4
  br label %10

9:                                                ; preds = %1
  store i32 0, ptr %2, align 4
  br label %10

10:                                               ; preds = %9, %6
  %11 = load i32, ptr %2, align 4
  ret i32 %11
}

; Function Attrs: mustprogress nounwind uwtable
define linkonce_odr dso_local noundef zeroext i1 @_ZNKSt14_Function_base8_M_emptyEv(ptr noundef nonnull align 8 dereferenceable(24) %0) #5 comdat align 2 {
  %2 = alloca ptr, align 8
  store ptr %0, ptr %2, align 8, !tbaa !154
  %3 = load ptr, ptr %2, align 8
  %4 = getelementptr inbounds nuw %"class.std::_Function_base", ptr %3, i32 0, i32 1
  %5 = load ptr, ptr %4, align 8, !tbaa !100
  %6 = icmp ne ptr %5, null
  %7 = xor i1 %6, true
  ret i1 %7
}

; Function Attrs: mustprogress uwtable
define linkonce_odr dso_local void @_ZNSt5mutex6unlockEv(ptr noundef nonnull align 8 dereferenceable(40) %0) #0 comdat align 2 {
  %2 = alloca ptr, align 8
  store ptr %0, ptr %2, align 8, !tbaa !36
  %3 = load ptr, ptr %2, align 8
  %4 = getelementptr inbounds nuw %"class.std::__mutex_base", ptr %3, i32 0, i32 0
  %5 = call noundef i32 @_ZL22__gthread_mutex_unlockP15pthread_mutex_t(ptr noundef %4)
  ret void
}

; Function Attrs: mustprogress uwtable
define linkonce_odr dso_local void @_ZNKSt8functionIFvllEEclEll(ptr noundef nonnull align 8 dereferenceable(32) %0, i64 noundef %1, i64 noundef %2) #0 comdat align 2 {
  %4 = alloca ptr, align 8
  %5 = alloca i64, align 8
  %6 = alloca i64, align 8
  store ptr %0, ptr %4, align 8, !tbaa !122
  store i64 %1, ptr %5, align 8, !tbaa !93
  store i64 %2, ptr %6, align 8, !tbaa !93
  %7 = load ptr, ptr %4, align 8
  %8 = call noundef zeroext i1 @_ZNKSt14_Function_base8_M_emptyEv(ptr noundef nonnull align 8 dereferenceable(24) %7)
  br i1 %8, label %9, label %10

9:                                                ; preds = %3
  call void @_ZSt25__throw_bad_function_callv() #19
  unreachable

10:                                               ; preds = %3
  %11 = getelementptr inbounds nuw %"class.std::function.8", ptr %7, i32 0, i32 1
  %12 = load ptr, ptr %11, align 8, !tbaa !124
  %13 = getelementptr inbounds nuw %"class.std::_Function_base", ptr %7, i32 0, i32 0
  call void %12(ptr noundef nonnull align 8 dereferenceable(16) %13, ptr noundef nonnull align 8 dereferenceable(8) %5, ptr noundef nonnull align 8 dereferenceable(8) %6)
  ret void
}

; Function Attrs: mustprogress uwtable
define linkonce_odr dso_local void @_ZNSt11unique_lockISt5mutexE6unlockEv(ptr noundef nonnull align 8 dereferenceable(9) %0) #0 comdat align 2 {
  %2 = alloca ptr, align 8
  store ptr %0, ptr %2, align 8, !tbaa !34
  %3 = load ptr, ptr %2, align 8
  %4 = getelementptr inbounds nuw %"class.std::unique_lock", ptr %3, i32 0, i32 1
  %5 = load i8, ptr %4, align 8, !tbaa !41, !range !50, !noundef !51
  %6 = trunc i8 %5 to i1
  br i1 %6, label %8, label %7

7:                                                ; preds = %1
  call void @_ZSt20__throw_system_errori(i32 noundef 1) #19
  unreachable

8:                                                ; preds = %1
  %9 = getelementptr inbounds nuw %"class.std::unique_lock", ptr %3, i32 0, i32 0
  %10 = load ptr, ptr %9, align 8, !tbaa !38
  %11 = icmp ne ptr %10, null
  br i1 %11, label %12, label %16

12:                                               ; preds = %8
  %13 = getelementptr inbounds nuw %"class.std::unique_lock", ptr %3, i32 0, i32 0
  %14 = load ptr, ptr %13, align 8, !tbaa !38
  call void @_ZNSt5mutex6unlockEv(ptr noundef nonnull align 8 dereferenceable(40) %14)
  %15 = getelementptr inbounds nuw %"class.std::unique_lock", ptr %3, i32 0, i32 1
  store i8 0, ptr %15, align 8, !tbaa !41
  br label %16

16:                                               ; preds = %12, %8
  br label %17

17:                                               ; preds = %16
  ret void
}

; Function Attrs: mustprogress nounwind uwtable
define dso_local void @_ZN4pbrt10ThreadPool17RemoveFromJobListEPNS_11ParallelJobE(ptr noundef nonnull align 8 dereferenceable(128) %0, ptr noundef %1) #5 align 2 {
  %3 = alloca ptr, align 8
  %4 = alloca ptr, align 8
  store ptr %0, ptr %3, align 8, !tbaa !52
  store ptr %1, ptr %4, align 8, !tbaa !79
  %5 = load ptr, ptr %3, align 8
  br label %6

6:                                                ; preds = %2
  br label %7

7:                                                ; preds = %6
  %8 = load ptr, ptr %4, align 8, !tbaa !79
  %9 = getelementptr inbounds nuw %"class.pbrt::ParallelJob", ptr %8, i32 0, i32 3
  %10 = load ptr, ptr %9, align 8, !tbaa !86
  %11 = icmp ne ptr %10, null
  br i1 %11, label %12, label %20

12:                                               ; preds = %7
  %13 = load ptr, ptr %4, align 8, !tbaa !79
  %14 = getelementptr inbounds nuw %"class.pbrt::ParallelJob", ptr %13, i32 0, i32 4
  %15 = load ptr, ptr %14, align 8, !tbaa !82
  %16 = load ptr, ptr %4, align 8, !tbaa !79
  %17 = getelementptr inbounds nuw %"class.pbrt::ParallelJob", ptr %16, i32 0, i32 3
  %18 = load ptr, ptr %17, align 8, !tbaa !86
  %19 = getelementptr inbounds nuw %"class.pbrt::ParallelJob", ptr %18, i32 0, i32 4
  store ptr %15, ptr %19, align 8, !tbaa !82
  br label %27

20:                                               ; preds = %7
  br label %21

21:                                               ; preds = %20
  br label %22

22:                                               ; preds = %21
  %23 = load ptr, ptr %4, align 8, !tbaa !79
  %24 = getelementptr inbounds nuw %"class.pbrt::ParallelJob", ptr %23, i32 0, i32 4
  %25 = load ptr, ptr %24, align 8, !tbaa !82
  %26 = getelementptr inbounds nuw %"class.pbrt::ThreadPool", ptr %5, i32 0, i32 4
  store ptr %25, ptr %26, align 8, !tbaa !63
  br label %27

27:                                               ; preds = %22, %12
  %28 = load ptr, ptr %4, align 8, !tbaa !79
  %29 = getelementptr inbounds nuw %"class.pbrt::ParallelJob", ptr %28, i32 0, i32 4
  %30 = load ptr, ptr %29, align 8, !tbaa !82
  %31 = icmp ne ptr %30, null
  br i1 %31, label %32, label %40

32:                                               ; preds = %27
  %33 = load ptr, ptr %4, align 8, !tbaa !79
  %34 = getelementptr inbounds nuw %"class.pbrt::ParallelJob", ptr %33, i32 0, i32 3
  %35 = load ptr, ptr %34, align 8, !tbaa !86
  %36 = load ptr, ptr %4, align 8, !tbaa !79
  %37 = getelementptr inbounds nuw %"class.pbrt::ParallelJob", ptr %36, i32 0, i32 4
  %38 = load ptr, ptr %37, align 8, !tbaa !82
  %39 = getelementptr inbounds nuw %"class.pbrt::ParallelJob", ptr %38, i32 0, i32 3
  store ptr %35, ptr %39, align 8, !tbaa !86
  br label %40

40:                                               ; preds = %32, %27
  %41 = load ptr, ptr %4, align 8, !tbaa !79
  %42 = getelementptr inbounds nuw %"class.pbrt::ParallelJob", ptr %41, i32 0, i32 5
  store i8 1, ptr %42, align 8, !tbaa !87
  ret void
}

; Function Attrs: inlinehint mustprogress nounwind uwtable
define linkonce_odr dso_local noundef nonnull align 8 dereferenceable(8) ptr @_ZSt3minIlERKT_S2_S2_(ptr noundef nonnull align 8 dereferenceable(8) %0, ptr noundef nonnull align 8 dereferenceable(8) %1) #10 comdat {
  %3 = alloca ptr, align 8
  %4 = alloca ptr, align 8
  %5 = alloca ptr, align 8
  store ptr %0, ptr %4, align 8, !tbaa !110
  store ptr %1, ptr %5, align 8, !tbaa !110
  %6 = load ptr, ptr %5, align 8, !tbaa !110
  %7 = load i64, ptr %6, align 8, !tbaa !93
  %8 = load ptr, ptr %4, align 8, !tbaa !110
  %9 = load i64, ptr %8, align 8, !tbaa !93
  %10 = icmp slt i64 %7, %9
  br i1 %10, label %11, label %13

11:                                               ; preds = %2
  %12 = load ptr, ptr %5, align 8, !tbaa !110
  store ptr %12, ptr %3, align 8
  br label %15

13:                                               ; preds = %2
  %14 = load ptr, ptr %4, align 8, !tbaa !110
  store ptr %14, ptr %3, align 8
  br label %15

15:                                               ; preds = %13, %11
  %16 = load ptr, ptr %3, align 8
  ret ptr %16
}

; Function Attrs: mustprogress uwtable
define dso_local void @_ZN4pbrt17ParallelForLoop1D7RunStepEPSt11unique_lockISt5mutexE(ptr noundef nonnull align 8 dereferenceable(92) %0, ptr noundef %1) unnamed_addr #0 align 2 {
  %3 = alloca ptr, align 8
  %4 = alloca ptr, align 8
  %5 = alloca i64, align 8
  %6 = alloca i64, align 8
  %7 = alloca i64, align 8
  store ptr %0, ptr %3, align 8, !tbaa !116
  store ptr %1, ptr %4, align 8, !tbaa !34
  %8 = load ptr, ptr %3, align 8
  call void @llvm.lifetime.start.p0(i64 8, ptr %5) #18
  %9 = getelementptr inbounds nuw %"class.pbrt::ParallelForLoop1D", ptr %8, i32 0, i32 3
  %10 = load i64, ptr %9, align 8, !tbaa !118
  store i64 %10, ptr %5, align 8, !tbaa !93
  call void @llvm.lifetime.start.p0(i64 8, ptr %6) #18
  call void @llvm.lifetime.start.p0(i64 8, ptr %7) #18
  %11 = load i64, ptr %5, align 8, !tbaa !93
  %12 = getelementptr inbounds nuw %"class.pbrt::ParallelForLoop1D", ptr %8, i32 0, i32 5
  %13 = load i32, ptr %12, align 8, !tbaa !121
  %14 = sext i32 %13 to i64
  %15 = add nsw i64 %11, %14
  store i64 %15, ptr %7, align 8, !tbaa !93
  %16 = getelementptr inbounds nuw %"class.pbrt::ParallelForLoop1D", ptr %8, i32 0, i32 4
  %17 = call noundef nonnull align 8 dereferenceable(8) ptr @_ZSt3minIlERKT_S2_S2_(ptr noundef nonnull align 8 dereferenceable(8) %7, ptr noundef nonnull align 8 dereferenceable(8) %16)
  %18 = load i64, ptr %17, align 8, !tbaa !93
  call void @llvm.lifetime.end.p0(i64 8, ptr %7) #18
  store i64 %18, ptr %6, align 8, !tbaa !93
  %19 = load i64, ptr %6, align 8, !tbaa !93
  %20 = getelementptr inbounds nuw %"class.pbrt::ParallelForLoop1D", ptr %8, i32 0, i32 3
  store i64 %19, ptr %20, align 8, !tbaa !118
  %21 = load ptr, ptr %8, align 8, !tbaa !80
  %22 = getelementptr inbounds ptr, ptr %21, i64 2
  %23 = load ptr, ptr %22, align 8
  %24 = call noundef zeroext i1 %23(ptr noundef nonnull align 8 dereferenceable(92) %8)
  br i1 %24, label %27, label %25

25:                                               ; preds = %2
  %26 = load ptr, ptr @_ZN4pbrt11ParallelJob10threadPoolE, align 8, !tbaa !52
  call void @_ZN4pbrt10ThreadPool17RemoveFromJobListEPNS_11ParallelJobE(ptr noundef nonnull align 8 dereferenceable(128) %26, ptr noundef %8)
  br label %27

27:                                               ; preds = %25, %2
  %28 = load ptr, ptr %4, align 8, !tbaa !34
  call void @_ZNSt11unique_lockISt5mutexE6unlockEv(ptr noundef nonnull align 8 dereferenceable(9) %28)
  %29 = getelementptr inbounds nuw %"class.pbrt::ParallelForLoop1D", ptr %8, i32 0, i32 2
  %30 = load i64, ptr %5, align 8, !tbaa !93
  %31 = load i64, ptr %6, align 8, !tbaa !93
  call void @_ZNKSt8functionIFvllEEclEll(ptr noundef nonnull align 8 dereferenceable(32) %29, i64 noundef %30, i64 noundef %31)
  call void @llvm.lifetime.end.p0(i64 8, ptr %6) #18
  call void @llvm.lifetime.end.p0(i64 8, ptr %5) #18
  ret void
}