; Function Attrs: mustprogress uwtable
define dso_local void @_ZN4pbrt17ParallelForLoop1D7RunStepEPSt11unique_lockISt5mutexE(ptr noundef nonnull align 8 dereferenceable(92) %0, ptr noundef captures(none) %1) unnamed_addr #0 align 2 {
  %3 = alloca i64, align 8
  %4 = alloca i64, align 8
  %5 = getelementptr inbounds nuw i8, ptr %0, i64 72
  %6 = load i64, ptr %5, align 8, !tbaa !126
  %7 = getelementptr inbounds nuw i8, ptr %0, i64 88
  %8 = load i32, ptr %7, align 8, !tbaa !128
  %9 = sext i32 %8 to i64
  %10 = add nsw i64 %6, %9
  %11 = getelementptr inbounds nuw i8, ptr %0, i64 80
  %12 = load i64, ptr %11, align 8, !tbaa !66
  %.sroa.speculated = tail call i64 @llvm.smin.i64(i64 %12, i64 %10)
  store i64 %.sroa.speculated, ptr %5, align 8, !tbaa !126
  %13 = load ptr, ptr %0, align 8, !tbaa !55
  %14 = getelementptr inbounds nuw i8, ptr %13, i64 16
  %15 = load ptr, ptr %14, align 8
  %16 = tail call noundef zeroext i1 %15(ptr noundef nonnull align 8 dereferenceable(92) %0)
  br i1 %16, label %31, label %17

17:                                               ; preds = %2
  %18 = getelementptr inbounds nuw i8, ptr %0, i64 16
  %19 = load ptr, ptr %18, align 8, !tbaa !86
  %.not.i = icmp eq ptr %19, null
  %20 = getelementptr inbounds nuw i8, ptr %0, i64 24
  %21 = load ptr, ptr %20, align 8, !tbaa !87
  br i1 %.not.i, label %24, label %22

22:                                               ; preds = %17
  %23 = getelementptr inbounds nuw i8, ptr %19, i64 24
  store ptr %21, ptr %23, align 8, !tbaa !87
  br label %27

24:                                               ; preds = %17
  %25 = load ptr, ptr @_ZN4pbrt11ParallelJob10threadPoolE, align 8, !tbaa !122
  %26 = getelementptr inbounds nuw i8, ptr %25, i64 72
  store ptr %21, ptr %26, align 8, !tbaa !45
  br label %27

27:                                               ; preds = %24, %22
  %.not10.i = icmp eq ptr %21, null
  br i1 %.not10.i, label %_ZN4pbrt10ThreadPool17RemoveFromJobListEPNS_11ParallelJobE.exit, label %28

28:                                               ; preds = %27
  %29 = getelementptr inbounds nuw i8, ptr %21, i64 16
  store ptr %19, ptr %29, align 8, !tbaa !86
  br label %_ZN4pbrt10ThreadPool17RemoveFromJobListEPNS_11ParallelJobE.exit

_ZN4pbrt10ThreadPool17RemoveFromJobListEPNS_11ParallelJobE.exit: ; preds = %27, %28
  %30 = getelementptr inbounds nuw i8, ptr %0, i64 32
  store i8 1, ptr %30, align 8, !tbaa !88
  br label %31

31:                                               ; preds = %_ZN4pbrt10ThreadPool17RemoveFromJobListEPNS_11ParallelJobE.exit, %2
  %32 = getelementptr inbounds nuw i8, ptr %1, i64 8
  %33 = load i8, ptr %32, align 8, !tbaa !29, !range !41, !noundef !78
  %34 = trunc nuw i8 %33 to i1
  br i1 %34, label %36, label %35

35:                                               ; preds = %31
  tail call void @_ZSt20__throw_system_errori(i32 noundef 1) #27
  unreachable

36:                                               ; preds = %31
  %37 = load ptr, ptr %1, align 8, !tbaa !25
  %.not.i5 = icmp eq ptr %37, null
  br i1 %.not.i5, label %_ZNSt11unique_lockISt5mutexE6unlockEv.exit, label %38

38:                                               ; preds = %36
  %39 = tail call noundef i32 @pthread_mutex_unlock(ptr noundef nonnull align 8 dereferenceable(40) %37) #25
  store i8 0, ptr %32, align 8, !tbaa !29
  br label %_ZNSt11unique_lockISt5mutexE6unlockEv.exit

_ZNSt11unique_lockISt5mutexE6unlockEv.exit:       ; preds = %36, %38
  call void @llvm.lifetime.start.p0(i64 8, ptr nonnull %3)
  call void @llvm.lifetime.start.p0(i64 8, ptr nonnull %4)
  store i64 %6, ptr %3, align 8, !tbaa !66
  store i64 %.sroa.speculated, ptr %4, align 8, !tbaa !66
  %40 = getelementptr inbounds nuw i8, ptr %0, i64 56
  %41 = load ptr, ptr %40, align 8, !tbaa !97
  %.not.i.i = icmp eq ptr %41, null
  br i1 %.not.i.i, label %42, label %_ZNKSt8functionIFvllEEclEll.exit

42:                                               ; preds = %_ZNSt11unique_lockISt5mutexE6unlockEv.exit
  tail call void @_ZSt25__throw_bad_function_callv() #27
  unreachable

_ZNKSt8functionIFvllEEclEll.exit:                 ; preds = %_ZNSt11unique_lockISt5mutexE6unlockEv.exit
  %43 = getelementptr inbounds nuw i8, ptr %0, i64 40
  %44 = getelementptr inbounds nuw i8, ptr %0, i64 64
  %45 = load ptr, ptr %44, align 8, !tbaa !100
  call void %45(ptr noundef nonnull align 8 dereferenceable(32) %43, ptr noundef nonnull align 8 dereferenceable(8) %3, ptr noundef nonnull align 8 dereferenceable(8) %4)
  call void @llvm.lifetime.end.p0(i64 8, ptr nonnull %3)
  call void @llvm.lifetime.end.p0(i64 8, ptr nonnull %4)
  ret void
}